target datalayout = "e-m:e-p270:32:32-p271:32:32-p272:64:64-i64:64-i128:128-f80:128-n8:16:32:64-S128"
target triple = "x86_64-pc-linux-gnu"

%"class.duckdb::ByteStreamSplitDecoder" = type { ptr, ptr, %"class.duckdb::unique_ptr" }
%"class.duckdb::unique_ptr" = type { %"class.std::unique_ptr" }
%"class.std::unique_ptr" = type { %"struct.std::__uniq_ptr_data" }
%"struct.std::__uniq_ptr_data" = type { %"class.std::__uniq_ptr_impl" }
%"class.std::__uniq_ptr_impl" = type { %"class.std::tuple" }
%"class.std::tuple" = type { %"struct.std::_Tuple_impl" }
%"struct.std::_Tuple_impl" = type { %"struct.std::_Head_base.1" }
%"struct.std::_Head_base.1" = type { ptr }
%"class.duckdb::ColumnReader" = type { ptr, ptr, ptr, i64, i8, ptr, ptr, i64, i64, i64, %"class.duckdb::shared_ptr", %"class.duckdb::ResizeableBuffer", i32, %"class.duckdb::unique_ptr.2", %"class.duckdb::unique_ptr.2", %"class.duckdb::DictionaryDecoder", %"class.duckdb::DeltaBinaryPackedDecoder", %"class.duckdb::RLEDecoder", %"class.duckdb::DeltaLengthByteArrayDecoder", %"class.duckdb::DeltaByteArrayDecoder", %"class.duckdb::ByteStreamSplitDecoder", [2 x %"class.duckdb::ResizeableBuffer"] }
%"class.duckdb::shared_ptr" = type { %"class.std::shared_ptr" }
%"class.std::shared_ptr" = type { %"class.std::__shared_ptr" }
%"class.std::__shared_ptr" = type { ptr, %"class.std::__shared_count" }
%"class.std::__shared_count" = type { ptr }
%"class.duckdb::ResizeableBuffer" = type { %"class.duckdb::ByteBuffer", %"class.duckdb::AllocatedData", i64 }
%"class.duckdb::ByteBuffer" = type { ptr, i64 }
%"class.duckdb::AllocatedData" = type { %"class.duckdb::optional_ptr", ptr, i64 }
%"class.duckdb::optional_ptr" = type { ptr }
%"class.duckdb::unique_ptr.2" = type { %"class.std::unique_ptr.3" }
%"class.std::unique_ptr.3" = type { %"struct.std::__uniq_ptr_data.4" }
%"struct.std::__uniq_ptr_data.4" = type { %"class.std::__uniq_ptr_impl.5" }
%"class.std::__uniq_ptr_impl.5" = type { %"class.std::tuple.6" }
%"class.std::tuple.6" = type { %"struct.std::_Tuple_impl.7" }
%"struct.std::_Tuple_impl.7" = type { %"struct.std::_Head_base.10" }
%"struct.std::_Head_base.10" = type { ptr }
%"class.duckdb::DictionaryDecoder" = type { ptr, ptr, %"class.duckdb::unique_ptr.2", %"struct.duckdb::SelectionVector", %"struct.duckdb::SelectionVector", i64, %"class.duckdb::unique_ptr.15", %"class.duckdb::unique_ptr.24", i64, i8, %"class.std::__cxx11::basic_string" }
%"struct.duckdb::SelectionVector" = type { ptr, %"class.duckdb::shared_ptr.11" }
%"class.duckdb::shared_ptr.11" = type { %"class.std::shared_ptr.12" }
%"class.std::shared_ptr.12" = type { %"class.std::__shared_ptr.13" }
%"class.std::__shared_ptr.13" = type { ptr, %"class.std::__shared_count" }
%"class.duckdb::unique_ptr.15" = type { %"class.std::unique_ptr.16" }
%"class.std::unique_ptr.16" = type { %"struct.std::__uniq_ptr_data.17" }
%"struct.std::__uniq_ptr_data.17" = type { %"class.std::__uniq_ptr_impl.18" }
%"class.std::__uniq_ptr_impl.18" = type { %"class.std::tuple.19" }
%"class.std::tuple.19" = type { %"struct.std::_Tuple_impl.20" }
%"struct.std::_Tuple_impl.20" = type { %"struct.std::_Head_base.23" }
%"struct.std::_Head_base.23" = type { ptr }
%"class.duckdb::unique_ptr.24" = type { %"class.std::unique_ptr.25" }
%"class.std::unique_ptr.25" = type { %"struct.std::__uniq_ptr_data.26" }
%"struct.std::__uniq_ptr_data.26" = type { %"class.std::__uniq_ptr_impl.27" }
%"class.std::__uniq_ptr_impl.27" = type { %"class.std::tuple.28" }
%"class.std::tuple.28" = type { %"struct.std::_Tuple_impl.29" }
%"struct.std::_Tuple_impl.29" = type { %"struct.std::_Head_base.32" }
%"struct.std::_Head_base.32" = type { ptr }
%"class.std::__cxx11::basic_string" = type { %"struct.std::__cxx11::basic_string<char>::_Alloc_hider", i64, %union.anon }
%"struct.std::__cxx11::basic_string<char>::_Alloc_hider" = type { ptr }
%union.anon = type { i64, [8 x i8] }
%"class.duckdb::DeltaBinaryPackedDecoder" = type { ptr, ptr, %"class.duckdb::unique_ptr.33" }
%"class.duckdb::unique_ptr.33" = type { %"class.std::unique_ptr.34" }
%"class.std::unique_ptr.34" = type { %"struct.std::__uniq_ptr_data.35" }
%"struct.std::__uniq_ptr_data.35" = type { %"class.std::__uniq_ptr_impl.36" }
%"class.std::__uniq_ptr_impl.36" = type { %"class.std::tuple.37" }
%"class.std::tuple.37" = type { %"struct.std::_Tuple_impl.38" }
%"struct.std::_Tuple_impl.38" = type { %"struct.std::_Head_base.41" }
%"struct.std::_Head_base.41" = type { ptr }
%"class.duckdb::RLEDecoder" = type { ptr, ptr, %"class.duckdb::unique_ptr.2" }
%"class.duckdb::DeltaLengthByteArrayDecoder" = type { ptr, ptr, i64, i64 }
%"class.duckdb::DeltaByteArrayDecoder" = type { ptr, %"class.duckdb::unique_ptr.15", i64, i64 }
%"class.duckdb::ParquetReader" = type { ptr, ptr, %"class.std::__cxx11::basic_string", %"class.duckdb::vector", %"class.duckdb::shared_ptr.45", %"struct.duckdb::ParquetOptions", %"struct.duckdb::MultiFileReaderData", %"class.duckdb::unique_ptr.119", %"class.duckdb::shared_ptr.128", %"class.duckdb::vector.132", %"class.duckdb::unique_ptr.138" }
%"class.duckdb::vector" = type { %"class.std::vector" }
%"class.std::vector" = type { %"struct.std::_Vector_base" }
%"struct.std::_Vector_base" = type { %"struct.std::_Vector_base<duckdb::MultiFileReaderColumnDefinition, std::allocator<duckdb::MultiFileReaderColumnDefinition>>::_Vector_impl" }
%"struct.std::_Vector_base<duckdb::MultiFileReaderColumnDefinition, std::allocator<duckdb::MultiFileReaderColumnDefinition>>::_Vector_impl" = type { %"struct.std::_Vector_base<duckdb::MultiFileReaderColumnDefinition, std::allocator<duckdb::MultiFileReaderColumnDefinition>>::_Vector_impl_data" }
%"struct.std::_Vector_base<duckdb::MultiFileReaderColumnDefinition, std::allocator<duckdb::MultiFileReaderColumnDefinition>>::_Vector_impl_data" = type { ptr, ptr, ptr }
%"class.duckdb::shared_ptr.45" = type { %"class.std::shared_ptr.46" }
%"class.std::shared_ptr.46" = type { %"class.std::__shared_ptr.47" }
%"class.std::__shared_ptr.47" = type { ptr, %"class.std::__shared_count" }
%"struct.duckdb::ParquetOptions" = type { i8, i8, %"class.duckdb::shared_ptr.49", i8, %"struct.duckdb::MultiFileReaderOptions", %"class.duckdb::vector.72", i64 }
%"class.duckdb::shared_ptr.49" = type { %"class.std::shared_ptr.50" }
%"class.std::shared_ptr.50" = type { %"class.std::__shared_ptr.51" }
%"class.std::__shared_ptr.51" = type { ptr, %"class.std::__shared_count" }
%"struct.duckdb::MultiFileReaderOptions" = type { i8, i8, i8, i8, i8, i8, %"class.std::unordered_map", %"class.std::__cxx11::basic_string", %"class.std::unordered_map.58" }
%"class.std::unordered_map" = type { %"class.std::_Hashtable" }
%"class.std::_Hashtable" = type { ptr, i64, %"struct.std::__detail::_Hash_node_base", i64, %"struct.std::__detail::_Prime_rehash_policy", ptr }
%"struct.std::__detail::_Hash_node_base" = type { ptr }
%"struct.std::__detail::_Prime_rehash_policy" = type { float, i64 }
%"class.std::unordered_map.58" = type { %"class.std::_Hashtable.59" }
%"class.std::_Hashtable.59" = type { ptr, i64, %"struct.std::__detail::_Hash_node_base", i64, %"struct.std::__detail::_Prime_rehash_policy", ptr }
%"class.duckdb::vector.72" = type { %"class.std::vector.73" }
%"class.std::vector.73" = type { %"struct.std::_Vector_base.74" }
%"struct.std::_Vector_base.74" = type { %"struct.std::_Vector_base<duckdb::ParquetColumnDefinition, std::allocator<duckdb::ParquetColumnDefinition>>::_Vector_impl" }
%"struct.std::_Vector_base<duckdb::ParquetColumnDefinition, std::allocator<duckdb::ParquetColumnDefinition>>::_Vector_impl" = type { %"struct.std::_Vector_base<duckdb::ParquetColumnDefinition, std::allocator<duckdb::ParquetColumnDefinition>>::_Vector_impl_data" }
%"struct.std::_Vector_base<duckdb::ParquetColumnDefinition, std::allocator<duckdb::ParquetColumnDefinition>>::_Vector_impl_data" = type { ptr, ptr, ptr }
%"struct.duckdb::MultiFileReaderData" = type { %"class.duckdb::vector.78", %"class.duckdb::vector.84", %"class.duckdb::vector.78", i8, %"class.duckdb::vector.90", %"class.duckdb::optional_ptr.96", %"class.duckdb::vector.97", %"class.std::unordered_map.103", %"class.duckdb::optional_idx" }
%"class.duckdb::vector.84" = type { %"class.std::vector.85" }
%"class.std::vector.85" = type { %"struct.std::_Vector_base.86" }
%"struct.std::_Vector_base.86" = type { %"struct.std::_Vector_base<duckdb::ColumnIndex, std::allocator<duckdb::ColumnIndex>>::_Vector_impl" }
%"struct.std::_Vector_base<duckdb::ColumnIndex, std::allocator<duckdb::ColumnIndex>>::_Vector_impl" = type { %"struct.std::_Vector_base<duckdb::ColumnIndex, std::allocator<duckdb::ColumnIndex>>::_Vector_impl_data" }
%"struct.std::_Vector_base<duckdb::ColumnIndex, std::allocator<duckdb::ColumnIndex>>::_Vector_impl_data" = type { ptr, ptr, ptr }
%"class.duckdb::vector.78" = type { %"class.std::vector.79" }
%"class.std::vector.79" = type { %"struct.std::_Vector_base.80" }
%"struct.std::_Vector_base.80" = type { %"struct.std::_Vector_base<unsigned long, std::allocator<unsigned long>>::_Vector_impl" }
%"struct.std::_Vector_base<unsigned long, std::allocator<unsigned long>>::_Vector_impl" = type { %"struct.std::_Vector_base<unsigned long, std::allocator<unsigned long>>::_Vector_impl_data" }
%"struct.std::_Vector_base<unsigned long, std::allocator<unsigned long>>::_Vector_impl_data" = type { ptr, ptr, ptr }
%"class.duckdb::vector.90" = type { %"class.std::vector.91" }
%"class.std::vector.91" = type { %"struct.std::_Vector_base.92" }
%"struct.std::_Vector_base.92" = type { %"struct.std::_Vector_base<duckdb::MultiFileFilterEntry, std::allocator<duckdb::MultiFileFilterEntry>>::_Vector_impl" }
%"struct.std::_Vector_base<duckdb::MultiFileFilterEntry, std::allocator<duckdb::MultiFileFilterEntry>>::_Vector_impl" = type { %"struct.std::_Vector_base<duckdb::MultiFileFilterEntry, std::allocator<duckdb::MultiFileFilterEntry>>::_Vector_impl_data" }
%"struct.std::_Vector_base<duckdb::MultiFileFilterEntry, std::allocator<duckdb::MultiFileFilterEntry>>::_Vector_impl_data" = type { ptr, ptr, ptr }
%"class.duckdb::optional_ptr.96" = type { ptr }
%"class.duckdb::vector.97" = type { %"class.std::vector.98" }
%"class.std::vector.98" = type { %"struct.std::_Vector_base.99" }
%"struct.std::_Vector_base.99" = type { %"struct.std::_Vector_base<duckdb::MultiFileConstantEntry, std::allocator<duckdb::MultiFileConstantEntry>>::_Vector_impl" }
%"struct.std::_Vector_base<duckdb::MultiFileConstantEntry, std::allocator<duckdb::MultiFileConstantEntry>>::_Vector_impl" = type { %"struct.std::_Vector_base<duckdb::MultiFileConstantEntry, std::allocator<duckdb::MultiFileConstantEntry>>::_Vector_impl_data" }
%"struct.std::_Vector_base<duckdb::MultiFileConstantEntry, std::allocator<duckdb::MultiFileConstantEntry>>::_Vector_impl_data" = type { ptr, ptr, ptr }
%"class.std::unordered_map.103" = type { %"class.std::_Hashtable.104" }
%"class.std::_Hashtable.104" = type { ptr, i64, %"struct.std::__detail::_Hash_node_base", i64, %"struct.std::__detail::_Prime_rehash_policy", ptr }
%"class.duckdb::optional_idx" = type { i64 }
%"class.duckdb::unique_ptr.119" = type { %"class.std::unique_ptr.120" }
%"class.std::unique_ptr.120" = type { %"struct.std::__uniq_ptr_data.121" }
%"struct.std::__uniq_ptr_data.121" = type { %"class.std::__uniq_ptr_impl.122" }
%"class.std::__uniq_ptr_impl.122" = type { %"class.std::tuple.123" }
%"class.std::tuple.123" = type { %"struct.std::_Tuple_impl.124" }
%"struct.std::_Tuple_impl.124" = type { %"struct.std::_Head_base.127" }
%"struct.std::_Head_base.127" = type { ptr }
%"class.duckdb::shared_ptr.128" = type { %"class.std::shared_ptr.129" }
%"class.std::shared_ptr.129" = type { %"class.std::__shared_ptr.130" }
%"class.std::__shared_ptr.130" = type { ptr, %"class.std::__shared_count" }
%"class.duckdb::vector.132" = type { %"class.std::vector.133" }
%"class.std::vector.133" = type { %"struct.std::_Vector_base.134" }
%"struct.std::_Vector_base.134" = type { %"struct.std::_Vector_base<std::__cxx11::basic_string<char>, std::allocator<std::__cxx11::basic_string<char>>>::_Vector_impl" }
%"struct.std::_Vector_base<std::__cxx11::basic_string<char>, std::allocator<std::__cxx11::basic_string<char>>>::_Vector_impl" = type { %"struct.std::_Vector_base<std::__cxx11::basic_string<char>, std::allocator<std::__cxx11::basic_string<char>>>::_Vector_impl_data" }
%"struct.std::_Vector_base<std::__cxx11::basic_string<char>, std::allocator<std::__cxx11::basic_string<char>>>::_Vector_impl_data" = type { ptr, ptr, ptr }
%"class.duckdb::unique_ptr.138" = type { %"class.std::unique_ptr.139" }
%"class.std::unique_ptr.139" = type { %"struct.std::__uniq_ptr_data.140" }
%"struct.std::__uniq_ptr_data.140" = type { %"class.std::__uniq_ptr_impl.141" }
%"class.std::__uniq_ptr_impl.141" = type { %"class.std::tuple.142" }
%"class.std::tuple.142" = type { %"struct.std::_Tuple_impl.143" }
%"struct.std::_Tuple_impl.143" = type { %"struct.std::_Head_base.146" }
%"struct.std::_Head_base.146" = type { ptr }
%"struct.duckdb::ParquetColumnSchema" = type { i32, %"class.std::__cxx11::basic_string", %"struct.duckdb::LogicalType", i64, i64, i64, i64, %"class.duckdb::optional_idx", i32, i32, i32, i32, %"class.duckdb::vector.160" }
%"struct.duckdb::LogicalType" = type { i8, i8, %"class.duckdb::shared_ptr.156" }
%"class.duckdb::shared_ptr.156" = type { %"class.std::shared_ptr.157" }
%"class.std::shared_ptr.157" = type { %"class.std::__shared_ptr.158" }
%"class.std::__shared_ptr.158" = type { ptr, %"class.std::__shared_count" }
%"class.duckdb::vector.160" = type { %"class.std::vector.161" }
%"class.std::vector.161" = type { %"struct.std::_Vector_base.162" }
%"struct.std::_Vector_base.162" = type { %"struct.std::_Vector_base<duckdb::ParquetColumnSchema, std::allocator<duckdb::ParquetColumnSchema>>::_Vector_impl" }
%"struct.std::_Vector_base<duckdb::ParquetColumnSchema, std::allocator<duckdb::ParquetColumnSchema>>::_Vector_impl" = type { %"struct.std::_Vector_base<duckdb::ParquetColumnSchema, std::allocator<duckdb::ParquetColumnSchema>>::_Vector_impl_data" }
%"struct.std::_Vector_base<duckdb::ParquetColumnSchema, std::allocator<duckdb::ParquetColumnSchema>>::_Vector_impl_data" = type { ptr, ptr, ptr }

@_ZTISt13runtime_error = external constant ptr
@.str.7 = private unnamed_addr constant [72 x i8] c"Delta Length Byte Array encoding is only supported for string/blob data\00", align 1

; Function Attrs: inlinehint mustprogress nounwind uwtable
define linkonce_odr noundef zeroext i8 @_ZNK6duckdb11LogicalType12InternalTypeEv(ptr noundef nonnull align 8 dereferenceable(24) %0) #5 comdat align 2 {
  %2 = alloca ptr, align 8
  store ptr %0, ptr %2, align 8, !tbaa !263
  %3 = load ptr, ptr %2, align 8
  %4 = getelementptr inbounds nuw %"struct.duckdb::LogicalType", ptr %3, i32 0, i32 1
  %5 = load i8, ptr %4, align 1, !tbaa !265
  ret i8 %5
}

; Function Attrs: mustprogress nounwind uwtable
define linkonce_odr noundef nonnull align 8 dereferenceable(24) ptr @_ZNK6duckdb12ColumnReader4TypeEv(ptr noundef nonnull align 8 dereferenceable(544) %0) #4 comdat align 2 {
  %2 = alloca ptr, align 8
  store ptr %0, ptr %2, align 8, !tbaa !8
  %3 = load ptr, ptr %2, align 8
  %4 = getelementptr inbounds nuw %"class.duckdb::ColumnReader", ptr %3, i32 0, i32 1
  %5 = load ptr, ptr %4, align 8, !tbaa !222
  %6 = getelementptr inbounds nuw %"struct.duckdb::ParquetColumnSchema", ptr %5, i32 0, i32 2
  ret ptr %6
}

; Function Attrs: mustprogress uwtable
define void @_ZN6duckdb27DeltaLengthByteArrayDecoder14InitializePageEv(ptr noundef nonnull align 8 dereferenceable(32) %0) #6 align 2 personality ptr @__gxx_personality_v0 {
  %2 = alloca ptr, align 8
  %3 = alloca ptr, align 8
  %4 = alloca i32, align 4
  %5 = alloca ptr, align 8
  %6 = alloca ptr, align 8
  store ptr %0, ptr %2, align 8, !tbaa !295
  %7 = load ptr, ptr %2, align 8
  %8 = getelementptr inbounds nuw %"class.duckdb::DeltaLengthByteArrayDecoder", ptr %7, i32 0, i32 0
  %9 = load ptr, ptr %8, align 8, !tbaa !299
  %10 = call noundef nonnull align 8 dereferenceable(24) ptr @_ZNK6duckdb12ColumnReader4TypeEv(ptr noundef nonnull align 8 dereferenceable(544) %9)
  %11 = call noundef zeroext i8 @_ZNK6duckdb11LogicalType12InternalTypeEv(ptr noundef nonnull align 8 dereferenceable(24) %10)
  %12 = icmp ne i8 %11, -56
  br i1 %12, label %13, label %20

13:                                               ; preds = %1
  %14 = call ptr @__cxa_allocate_exception(i64 16) #3
  invoke void @_ZNSt13runtime_errorC1EPKc(ptr noundef nonnull align 8 dereferenceable(16) %14, ptr noundef @.str.7)
          to label %15 unwind label %16

15:                                               ; preds = %13
  call void @__cxa_throw(ptr %14, ptr @_ZTISt13runtime_error, ptr @_ZNSt13runtime_errorD1Ev) #23
  unreachable

16:                                               ; preds = %13
  %17 = landingpad { ptr, i32 }
          cleanup
  %18 = extractvalue { ptr, i32 } %17, 0
  store ptr %18, ptr %3, align 8
  %19 = extractvalue { ptr, i32 } %17, 1
  store i32 %19, ptr %4, align 4
  call void @__cxa_free_exception(ptr %14) #3
  br label %37

20:                                               ; preds = %1
  call void @llvm.lifetime.start.p0(i64 8, ptr %5) #3
  %21 = getelementptr inbounds nuw %"class.duckdb::DeltaLengthByteArrayDecoder", ptr %7, i32 0, i32 0
  %22 = load ptr, ptr %21, align 8, !tbaa !299
  %23 = getelementptr inbounds nuw %"class.duckdb::ColumnReader", ptr %22, i32 0, i32 10
  %24 = call noundef nonnull align 8 dereferenceable(48) ptr @_ZNK6duckdb10shared_ptrINS_16ResizeableBufferELb1EEdeEv(ptr noundef nonnull align 8 dereferenceable(16) %23)
  store ptr %24, ptr %5, align 8, !tbaa !10
  call void @llvm.lifetime.start.p0(i64 8, ptr %6) #3
  %25 = getelementptr inbounds nuw %"class.duckdb::DeltaLengthByteArrayDecoder", ptr %7, i32 0, i32 0
  %26 = load ptr, ptr %25, align 8, !tbaa !299
  %27 = getelementptr inbounds nuw %"class.duckdb::ColumnReader", ptr %26, i32 0, i32 2
  %28 = load ptr, ptr %27, align 8, !tbaa !45
  %29 = getelementptr inbounds nuw %"class.duckdb::ParquetReader", ptr %28, i32 0, i32 1
  %30 = load ptr, ptr %29, align 8, !tbaa !106
  store ptr %30, ptr %6, align 8, !tbaa !195
  %31 = load ptr, ptr %6, align 8, !tbaa !195
  %32 = load ptr, ptr %5, align 8, !tbaa !10
  %33 = getelementptr inbounds nuw %"class.duckdb::DeltaLengthByteArrayDecoder", ptr %7, i32 0, i32 1
  %34 = load ptr, ptr %33, align 8, !tbaa !300
  %35 = getelementptr inbounds nuw %"class.duckdb::DeltaLengthByteArrayDecoder", ptr %7, i32 0, i32 2
  call void @_ZN6duckdb21DeltaByteArrayDecoder11ReadDbpDataERNS_9AllocatorERNS_16ResizeableBufferES4_Rm(ptr noundef nonnull align 8 dereferenceable(32) %31, ptr noundef nonnull align 8 dereferenceable(48) %32, ptr noundef nonnull align 8 dereferenceable(48) %34, ptr noundef nonnull align 8 dereferenceable(8) %35)
  %36 = getelementptr inbounds nuw %"class.duckdb::DeltaLengthByteArrayDecoder", ptr %7, i32 0, i32 3
  store i64 0, ptr %36, align 8, !tbaa !298
  call void @llvm.lifetime.end.p0(i64 8, ptr %6) #3
  call void @llvm.lifetime.end.p0(i64 8, ptr %5) #3
  ret void

37:                                               ; preds = %16
  %38 = load ptr, ptr %3, align 8
  %39 = load i32, ptr %4, align 4
  %40 = insertvalue { ptr, i32 } poison, ptr %38, 0
  %41 = insertvalue { ptr, i32 } %40, i32 %39, 1
  resume { ptr, i32 } %41
}