; Function Attrs: mustprogress uwtable
define void @_ZN6duckdb27DeltaLengthByteArrayDecoder14InitializePageEv(ptr noundef nonnull align 8 captures(none) dereferenceable(32) %0) local_unnamed_addr #4 align 2 personality ptr @__gxx_personality_v0 {
  %2 = load ptr, ptr %0, align 8, !tbaa !293
  %3 = getelementptr inbounds nuw i8, ptr %2, i64 8
  %4 = load ptr, ptr %3, align 8, !tbaa !43
  %5 = getelementptr inbounds nuw i8, ptr %4, i64 41
  %6 = load i8, ptr %5, align 1, !tbaa !255
  %.not = icmp eq i8 %6, -56
  br i1 %.not, label %12, label %7

7:                                                ; preds = %1
  %8 = tail call ptr @__cxa_allocate_exception(i64 16) #24
  invoke void @_ZNSt13runtime_errorC1EPKc(ptr noundef nonnull align 8 dereferenceable(16) %8, ptr noundef nonnull @.str.7)
          to label %9 unwind label %10

9:                                                ; preds = %7
  tail call void @__cxa_throw(ptr nonnull %8, ptr nonnull @_ZTISt13runtime_error, ptr nonnull @_ZNSt13runtime_errorD1Ev) #25
  unreachable

10:                                               ; preds = %7
  %11 = landingpad { ptr, i32 }
          cleanup
  tail call void @__cxa_free_exception(ptr nonnull %8) #24
  resume { ptr, i32 } %11

12:                                               ; preds = %1
  %13 = getelementptr inbounds nuw i8, ptr %2, i64 80
  %14 = tail call noundef nonnull align 8 dereferenceable(48) ptr @_ZNK6duckdb10shared_ptrINS_16ResizeableBufferELb1EEdeEv(ptr noundef nonnull align 8 dereferenceable(16) %13)
  %15 = load ptr, ptr %0, align 8, !tbaa !293
  %16 = getelementptr inbounds nuw i8, ptr %15, i64 16
  %17 = load ptr, ptr %16, align 8, !tbaa !121
  %18 = getelementptr inbounds nuw i8, ptr %17, i64 8
  %19 = load ptr, ptr %18, align 8, !tbaa !122
  %20 = getelementptr inbounds nuw i8, ptr %0, i64 8
  %21 = load ptr, ptr %20, align 8, !tbaa !294
  %22 = getelementptr inbounds nuw i8, ptr %0, i64 16
  tail call void @_ZN6duckdb21DeltaByteArrayDecoder11ReadDbpDataERNS_9AllocatorERNS_16ResizeableBufferES4_Rm(ptr noundef nonnull align 8 dereferenceable(32) %19, ptr noundef nonnull align 8 dereferenceable(48) %14, ptr noundef nonnull align 8 dereferenceable(48) %21, ptr noundef nonnull align 8 dereferenceable(8) %22)
  %23 = getelementptr inbounds nuw i8, ptr %0, i64 24
  store i64 0, ptr %23, align 8, !tbaa !295
  ret void
}